target datalayout = "e-m:e-p270:32:32-p271:32:32-p272:64:64-i64:64-i128:128-f80:128-n8:16:32:64-S128"
target triple = "x86_64-pc-linux-gnu"

%struct._seen_packet = type { i8, i32 }
%struct._e_guid_t = type { i32, i16, i16, [8 x i8] }
%struct._dcerpc_info = type { ptr, i32, i64, i8, i8, i8, i32, i32, i32, i32, i32, i32, i32, i32, ptr, ptr, ptr, ptr, %struct.anon }
%struct.anon = type { i8, ptr, ptr, ptr, i8 }
%struct._dcerpc_call_value = type { %struct._e_guid_t, i16, %struct._e_guid_t, i16, i32, %struct.nstime_t, i32, i32, ptr, ptr, ptr, i32 }
%struct.nstime_t = type { i64, i32 }
%struct._netlogon_auth_vars = type { i64, i64, %struct._md4_pass, i32, [16 x i8], [16 x i8], [16 x i8], i32, i64, i64, i8, i8, ptr, i32, i32, ptr }
%struct._md4_pass = type { [16 x i8], [257 x i8] }

@hf_netlogon_acct_name = internal global i32 0, align 4
@.str.211 = private unnamed_addr constant [10 x i8] c"Acct Name\00", align 1
@hf_netlogon_computer_name = internal global i32 0, align 4
@.str.252 = private unnamed_addr constant [14 x i8] c"Computer Name\00", align 1
@hf_netlogon_logonsrv_handle = internal global i32 0, align 4
@hf_netlogon_secure_channel_type = internal global i32 0, align 4
@hf_netlogon_neg_flags = internal global i32 0, align 4
@ett_authenticate_flags = internal global i32 0, align 4
@seen = internal global %struct._seen_packet zeroinitializer, align 4
@.str.1135 = private unnamed_addr constant [14 x i8] c"Server Handle\00", align 1

; Function Attrs: null_pointer_is_valid sspstrong uwtable
define internal ptr @netlogon_dissect_neg_options(ptr noundef %0, ptr noundef %1, i32 noundef %2, i32 noundef %3) #0 {
  %5 = alloca ptr, align 8
  %6 = alloca ptr, align 8
  %7 = alloca i32, align 4
  %8 = alloca i32, align 4
  store ptr %0, ptr %5, align 8
  store ptr %1, ptr %6, align 8
  store i32 %2, ptr %7, align 4
  store i32 %3, ptr %8, align 4
  %9 = load ptr, ptr %6, align 8
  %10 = load ptr, ptr %5, align 8
  %11 = load i32, ptr %8, align 4
  %12 = load i32, ptr @hf_netlogon_neg_flags, align 4
  %13 = load i32, ptr @ett_authenticate_flags, align 4
  %14 = load i32, ptr %7, align 4
  %15 = zext i32 %14 to i64
  %16 = call ptr @proto_tree_add_bitmask_value_with_flags(ptr noundef %9, ptr noundef %10, i32 noundef %11, i32 noundef %12, i32 noundef %13, ptr noundef @netlogon_dissect_neg_options.hf_flags, i64 noundef %15, i32 noundef 1)
  ret ptr %16
}

; Function Attrs: null_pointer_is_valid sspstrong uwtable
define internal i32 @netlogon_dissect_NETLOGON_SECURE_CHANNEL_TYPE(ptr noundef %0, i32 noundef %1, ptr noundef %2, ptr noundef %3, ptr noundef %4, ptr noundef %5) #0 {
  %7 = alloca ptr, align 8
  %8 = alloca i32, align 4
  %9 = alloca ptr, align 8
  %10 = alloca ptr, align 8
  %11 = alloca ptr, align 8
  %12 = alloca ptr, align 8
  store ptr %0, ptr %7, align 8
  store i32 %1, ptr %8, align 4
  store ptr %2, ptr %9, align 8
  store ptr %3, ptr %10, align 8
  store ptr %4, ptr %11, align 8
  store ptr %5, ptr %12, align 8
  %13 = load ptr, ptr %7, align 8
  %14 = load i32, ptr %8, align 4
  %15 = load ptr, ptr %9, align 8
  %16 = load ptr, ptr %10, align 8
  %17 = load ptr, ptr %11, align 8
  %18 = load ptr, ptr %12, align 8
  %19 = load i32, ptr @hf_netlogon_secure_channel_type, align 4
  %20 = call i32 @dissect_ndr_uint1632(ptr noundef %13, i32 noundef %14, ptr noundef %15, ptr noundef %16, ptr noundef %17, ptr noundef %18, i32 noundef %19, ptr noundef null)
  store i32 %20, ptr %8, align 4
  %21 = load i32, ptr %8, align 4
  ret i32 %21
}

; Function Attrs: null_pointer_is_valid sspstrong uwtable
define internal i32 @netlogon_dissect_LOGONSRV_HANDLE(ptr noundef %0, i32 noundef %1, ptr noundef %2, ptr noundef %3, ptr noundef %4, ptr noundef %5) #0 {
  %7 = alloca ptr, align 8
  %8 = alloca i32, align 4
  %9 = alloca ptr, align 8
  %10 = alloca ptr, align 8
  %11 = alloca ptr, align 8
  %12 = alloca ptr, align 8
  store ptr %0, ptr %7, align 8
  store i32 %1, ptr %8, align 4
  store ptr %2, ptr %9, align 8
  store ptr %3, ptr %10, align 8
  store ptr %4, ptr %11, align 8
  store ptr %5, ptr %12, align 8
  %13 = load ptr, ptr %7, align 8
  %14 = load i32, ptr %8, align 4
  %15 = load ptr, ptr %9, align 8
  %16 = load ptr, ptr %10, align 8
  %17 = load ptr, ptr %11, align 8
  %18 = load ptr, ptr %12, align 8
  %19 = load i32, ptr @hf_netlogon_logonsrv_handle, align 4
  %20 = call i32 @dissect_ndr_str_pointer_item(ptr noundef %13, i32 noundef %14, ptr noundef %15, ptr noundef %16, ptr noundef %17, ptr noundef %18, i32 noundef 2, ptr noundef @.str.1135, i32 noundef %19, i32 noundef 0)
  store i32 %20, ptr %8, align 4
  %21 = load i32, ptr %8, align 4
  ret i32 %21
}

; Function Attrs: null_pointer_is_valid sspstrong uwtable
define internal i32 @netlogon_dissect_netrserverauthenticatekerberos_rqst(ptr noundef %0, i32 noundef %1, ptr noundef %2, ptr noundef %3, ptr noundef %4, ptr noundef %5) #0 {
  %7 = alloca ptr, align 8
  %8 = alloca i32, align 4
  %9 = alloca ptr, align 8
  %10 = alloca ptr, align 8
  %11 = alloca ptr, align 8
  %12 = alloca ptr, align 8
  %13 = alloca ptr, align 8
  %14 = alloca ptr, align 8
  %15 = alloca i32, align 4
  store ptr %0, ptr %7, align 8
  store i32 %1, ptr %8, align 4
  store ptr %2, ptr %9, align 8
  store ptr %3, ptr %10, align 8
  store ptr %4, ptr %11, align 8
  store ptr %5, ptr %12, align 8
  call void @llvm.lifetime.start.p0(i64 8, ptr %13) #15
  store ptr null, ptr %13, align 8
  call void @llvm.lifetime.start.p0(i64 8, ptr %14) #15
  %16 = load ptr, ptr %11, align 8
  %17 = getelementptr inbounds nuw %struct._dcerpc_info, ptr %16, i32 0, i32 14
  %18 = load ptr, ptr %17, align 8
  store ptr %18, ptr %14, align 8
  call void @llvm.lifetime.start.p0(i64 4, ptr %15) #15
  %19 = load ptr, ptr %7, align 8
  %20 = load i32, ptr %8, align 4
  %21 = load ptr, ptr %9, align 8
  %22 = load ptr, ptr %10, align 8
  %23 = load ptr, ptr %11, align 8
  %24 = load ptr, ptr %12, align 8
  %25 = call i32 @netlogon_dissect_LOGONSRV_HANDLE(ptr noundef %19, i32 noundef %20, ptr noundef %21, ptr noundef %22, ptr noundef %23, ptr noundef %24)
  store i32 %25, ptr %8, align 4
  %26 = load ptr, ptr %11, align 8
  %27 = getelementptr inbounds nuw %struct._dcerpc_info, ptr %26, i32 0, i32 14
  %28 = load ptr, ptr %27, align 8
  %29 = getelementptr inbounds nuw %struct._dcerpc_call_value, ptr %28, i32 0, i32 11
  %30 = load i32, ptr %29, align 8
  %31 = and i32 %30, 1
  %32 = icmp ne i32 %31, 0
  br i1 %32, label %33, label %48

33:                                               ; preds = %6
  %34 = load ptr, ptr %11, align 8
  %35 = getelementptr inbounds nuw %struct._dcerpc_info, ptr %34, i32 0, i32 4
  %36 = load i8, ptr %35, align 1, !range !6, !noundef !7
  %37 = trunc i8 %36 to i1
  br i1 %37, label %47, label %38

38:                                               ; preds = %33
  %39 = load i32, ptr %8, align 4
  %40 = and i32 %39, 7
  %41 = icmp ne i32 %40, 0
  br i1 %41, label %42, label %46

42:                                               ; preds = %38
  %43 = load i32, ptr %8, align 4
  %44 = and i32 %43, -8
  %45 = add i32 %44, 8
  store i32 %45, ptr %8, align 4
  br label %46

46:                                               ; preds = %42, %38
  br label %47

47:                                               ; preds = %46, %33
  br label %63

48:                                               ; preds = %6
  %49 = load ptr, ptr %11, align 8
  %50 = getelementptr inbounds nuw %struct._dcerpc_info, ptr %49, i32 0, i32 4
  %51 = load i8, ptr %50, align 1, !range !6, !noundef !7
  %52 = trunc i8 %51 to i1
  br i1 %52, label %62, label %53

53:                                               ; preds = %48
  %54 = load i32, ptr %8, align 4
  %55 = and i32 %54, 3
  %56 = icmp ne i32 %55, 0
  br i1 %56, label %57, label %61

57:                                               ; preds = %53
  %58 = load i32, ptr %8, align 4
  %59 = and i32 %58, -4
  %60 = add i32 %59, 4
  store i32 %60, ptr %8, align 4
  br label %61

61:                                               ; preds = %57, %53
  br label %62

62:                                               ; preds = %61, %48
  br label %63

63:                                               ; preds = %62, %47
  %64 = load ptr, ptr %7, align 8
  %65 = load i32, ptr %8, align 4
  %66 = load ptr, ptr %9, align 8
  %67 = load ptr, ptr %10, align 8
  %68 = load ptr, ptr %11, align 8
  %69 = load ptr, ptr %12, align 8
  %70 = load i32, ptr @hf_netlogon_acct_name, align 4
  %71 = call i32 @dissect_ndr_str_pointer_item(ptr noundef %64, i32 noundef %65, ptr noundef %66, ptr noundef %67, ptr noundef %68, ptr noundef %69, i32 noundef 1, ptr noundef @.str.211, i32 noundef %70, i32 noundef 0)
  store i32 %71, ptr %8, align 4
  %72 = load ptr, ptr %11, align 8
  %73 = getelementptr inbounds nuw %struct._dcerpc_info, ptr %72, i32 0, i32 14
  %74 = load ptr, ptr %73, align 8
  %75 = getelementptr inbounds nuw %struct._dcerpc_call_value, ptr %74, i32 0, i32 11
  %76 = load i32, ptr %75, align 8
  %77 = and i32 %76, 1
  %78 = icmp ne i32 %77, 0
  br i1 %78, label %79, label %94

79:                                               ; preds = %63
  %80 = load ptr, ptr %11, align 8
  %81 = getelementptr inbounds nuw %struct._dcerpc_info, ptr %80, i32 0, i32 4
  %82 = load i8, ptr %81, align 1, !range !6, !noundef !7
  %83 = trunc i8 %82 to i1
  br i1 %83, label %93, label %84

84:                                               ; preds = %79
  %85 = load i32, ptr %8, align 4
  %86 = and i32 %85, 3
  %87 = icmp ne i32 %86, 0
  br i1 %87, label %88, label %92

88:                                               ; preds = %84
  %89 = load i32, ptr %8, align 4
  %90 = and i32 %89, -4
  %91 = add i32 %90, 4
  store i32 %91, ptr %8, align 4
  br label %92

92:                                               ; preds = %88, %84
  br label %93

93:                                               ; preds = %92, %79
  br label %109

94:                                               ; preds = %63
  %95 = load ptr, ptr %11, align 8
  %96 = getelementptr inbounds nuw %struct._dcerpc_info, ptr %95, i32 0, i32 4
  %97 = load i8, ptr %96, align 1, !range !6, !noundef !7
  %98 = trunc i8 %97 to i1
  br i1 %98, label %108, label %99

99:                                               ; preds = %94
  %100 = load i32, ptr %8, align 4
  %101 = and i32 %100, 1
  %102 = icmp ne i32 %101, 0
  br i1 %102, label %103, label %107

103:                                              ; preds = %99
  %104 = load i32, ptr %8, align 4
  %105 = and i32 %104, -2
  %106 = add i32 %105, 2
  store i32 %106, ptr %8, align 4
  br label %107

107:                                              ; preds = %103, %99
  br label %108

108:                                              ; preds = %107, %94
  br label %109

109:                                              ; preds = %108, %93
  %110 = load ptr, ptr %7, align 8
  %111 = load i32, ptr %8, align 4
  %112 = load ptr, ptr %9, align 8
  %113 = load ptr, ptr %10, align 8
  %114 = load ptr, ptr %11, align 8
  %115 = load ptr, ptr %12, align 8
  %116 = call i32 @netlogon_dissect_NETLOGON_SECURE_CHANNEL_TYPE(ptr noundef %110, i32 noundef %111, ptr noundef %112, ptr noundef %113, ptr noundef %114, ptr noundef %115)
  store i32 %116, ptr %8, align 4
  %117 = load ptr, ptr %11, align 8
  %118 = getelementptr inbounds nuw %struct._dcerpc_info, ptr %117, i32 0, i32 14
  %119 = load ptr, ptr %118, align 8
  %120 = getelementptr inbounds nuw %struct._dcerpc_call_value, ptr %119, i32 0, i32 11
  %121 = load i32, ptr %120, align 8
  %122 = and i32 %121, 1
  %123 = icmp ne i32 %122, 0
  br i1 %123, label %124, label %139

124:                                              ; preds = %109
  %125 = load ptr, ptr %11, align 8
  %126 = getelementptr inbounds nuw %struct._dcerpc_info, ptr %125, i32 0, i32 4
  %127 = load i8, ptr %126, align 1, !range !6, !noundef !7
  %128 = trunc i8 %127 to i1
  br i1 %128, label %138, label %129

129:                                              ; preds = %124
  %130 = load i32, ptr %8, align 4
  %131 = and i32 %130, 7
  %132 = icmp ne i32 %131, 0
  br i1 %132, label %133, label %137

133:                                              ; preds = %129
  %134 = load i32, ptr %8, align 4
  %135 = and i32 %134, -8
  %136 = add i32 %135, 8
  store i32 %136, ptr %8, align 4
  br label %137

137:                                              ; preds = %133, %129
  br label %138

138:                                              ; preds = %137, %124
  br label %154

139:                                              ; preds = %109
  %140 = load ptr, ptr %11, align 8
  %141 = getelementptr inbounds nuw %struct._dcerpc_info, ptr %140, i32 0, i32 4
  %142 = load i8, ptr %141, align 1, !range !6, !noundef !7
  %143 = trunc i8 %142 to i1
  br i1 %143, label %153, label %144

144:                                              ; preds = %139
  %145 = load i32, ptr %8, align 4
  %146 = and i32 %145, 3
  %147 = icmp ne i32 %146, 0
  br i1 %147, label %148, label %152

148:                                              ; preds = %144
  %149 = load i32, ptr %8, align 4
  %150 = and i32 %149, -4
  %151 = add i32 %150, 4
  store i32 %151, ptr %8, align 4
  br label %152

152:                                              ; preds = %148, %144
  br label %153

153:                                              ; preds = %152, %139
  br label %154

154:                                              ; preds = %153, %138
  %155 = load ptr, ptr %7, align 8
  %156 = load i32, ptr %8, align 4
  %157 = load ptr, ptr %9, align 8
  %158 = load ptr, ptr %10, align 8
  %159 = load ptr, ptr %11, align 8
  %160 = load ptr, ptr %12, align 8
  %161 = load i32, ptr @hf_netlogon_computer_name, align 4
  %162 = call i32 @dissect_ndr_pointer_cb(ptr noundef %155, i32 noundef %156, ptr noundef %157, ptr noundef %158, ptr noundef %159, ptr noundef %160, ptr noundef @dissect_ndr_wchar_cvstring, i32 noundef 1, ptr noundef @.str.252, i32 noundef %161, ptr noundef @cb_wstr_postprocess, ptr noundef inttoptr (i64 805306369 to ptr))
  store i32 %162, ptr %8, align 4
  br label %163

163:                                              ; preds = %154
  br label %164

164:                                              ; preds = %163
  br label %165

165:                                              ; preds = %164
  %166 = load ptr, ptr %9, align 8
  %167 = load ptr, ptr %14, align 8
  %168 = getelementptr inbounds nuw %struct._dcerpc_call_value, ptr %167, i32 0, i32 9
  %169 = load ptr, ptr %168, align 8
  %170 = call ptr @create_global_netlogon_auth_vars(ptr noundef %166, ptr noundef %169, i8 noundef zeroext 0)
  store ptr %170, ptr %13, align 8
  br label %171

171:                                              ; preds = %165
  br label %172

172:                                              ; preds = %171
  br label %173

173:                                              ; preds = %172
  %174 = load ptr, ptr %11, align 8
  %175 = getelementptr inbounds nuw %struct._dcerpc_info, ptr %174, i32 0, i32 4
  %176 = load i8, ptr %175, align 1, !range !6, !noundef !7
  %177 = trunc i8 %176 to i1
  br i1 %177, label %187, label %178

178:                                              ; preds = %173
  %179 = load i32, ptr %8, align 4
  %180 = and i32 %179, 3
  %181 = icmp ne i32 %180, 0
  br i1 %181, label %182, label %186

182:                                              ; preds = %178
  %183 = load i32, ptr %8, align 4
  %184 = and i32 %183, -4
  %185 = add i32 %184, 4
  store i32 %185, ptr %8, align 4
  br label %186

186:                                              ; preds = %182, %178
  br label %187

187:                                              ; preds = %186, %173
  %188 = load ptr, ptr %7, align 8
  %189 = load i32, ptr %8, align 4
  %190 = call i32 @tvb_get_letohl(ptr noundef %188, i32 noundef %189)
  store i32 %190, ptr %15, align 4
  %191 = load ptr, ptr %7, align 8
  %192 = load ptr, ptr %10, align 8
  %193 = load i32, ptr %15, align 4
  %194 = load i32, ptr %8, align 4
  %195 = call ptr @netlogon_dissect_neg_options(ptr noundef %191, ptr noundef %192, i32 noundef %193, i32 noundef %194)
  store i8 0, ptr @seen, align 4
  store i32 0, ptr getelementptr inbounds nuw (%struct._seen_packet, ptr @seen, i32 0, i32 1), align 4
  %196 = load i32, ptr %8, align 4
  %197 = add i32 %196, 4
  store i32 %197, ptr %8, align 4
  %198 = load i32, ptr %15, align 4
  %199 = load ptr, ptr %13, align 8
  %200 = getelementptr inbounds nuw %struct._netlogon_auth_vars, ptr %199, i32 0, i32 7
  store i32 %198, ptr %200, align 8
  %201 = load i32, ptr %8, align 4
  call void @llvm.lifetime.end.p0(i64 4, ptr %15) #15
  call void @llvm.lifetime.end.p0(i64 8, ptr %14) #15
  call void @llvm.lifetime.end.p0(i64 8, ptr %13) #15
  ret i32 %201
}