; Function Attrs: null_pointer_is_valid sspstrong uwtable
define internal noundef i32 @netlogon_dissect_netrserverauthenticatekerberos_rqst(ptr noundef %0, i32 noundef %1, ptr noundef %2, ptr noundef %3, ptr noundef %4, ptr noundef %5) #0 {
  %7 = getelementptr inbounds nuw i8, ptr %4, i64 64
  %8 = load ptr, ptr %7, align 8
  %9 = load i32, ptr @hf_netlogon_logonsrv_handle, align 4
  %10 = tail call i32 @dissect_ndr_str_pointer_item(ptr noundef %0, i32 noundef %1, ptr noundef %2, ptr noundef %3, ptr noundef %4, ptr noundef %5, i32 noundef 2, ptr noundef nonnull @.str.1135, i32 noundef %9, i32 noundef 0)
  %11 = load ptr, ptr %7, align 8
  %12 = getelementptr inbounds nuw i8, ptr %11, i64 96
  %13 = load i32, ptr %12, align 8
  %14 = and i32 %13, 1
  %.not = icmp eq i32 %14, 0
  %15 = getelementptr inbounds nuw i8, ptr %4, i64 25
  %16 = load i8, ptr %15, align 1, !range !6, !noundef !7
  %17 = trunc nuw i8 %16 to i1
  br i1 %.not, label %23, label %18

18:                                               ; preds = %6
  %19 = and i32 %10, 7
  %.not61 = icmp eq i32 %19, 0
  %or.cond = select i1 %17, i1 true, i1 %.not61
  br i1 %or.cond, label %28, label %20

20:                                               ; preds = %18
  %21 = and i32 %10, -8
  %22 = add i32 %21, 8
  br label %28

23:                                               ; preds = %6
  %24 = and i32 %10, 3
  %.not60 = icmp eq i32 %24, 0
  %or.cond69 = select i1 %17, i1 true, i1 %.not60
  br i1 %or.cond69, label %28, label %25

25:                                               ; preds = %23
  %26 = and i32 %10, -4
  %27 = add i32 %26, 4
  br label %28

28:                                               ; preds = %23, %25, %18, %20
  %.0 = phi i32 [ %10, %18 ], [ %22, %20 ], [ %10, %23 ], [ %27, %25 ]
  %29 = load i32, ptr @hf_netlogon_acct_name, align 4
  %30 = tail call i32 @dissect_ndr_str_pointer_item(ptr noundef %0, i32 noundef %.0, ptr noundef %2, ptr noundef %3, ptr noundef %4, ptr noundef %5, i32 noundef 1, ptr noundef nonnull @.str.211, i32 noundef %29, i32 noundef 0)
  %31 = load ptr, ptr %7, align 8
  %32 = getelementptr inbounds nuw i8, ptr %31, i64 96
  %33 = load i32, ptr %32, align 8
  %34 = and i32 %33, 1
  %.not62 = icmp eq i32 %34, 0
  %35 = getelementptr inbounds nuw i8, ptr %4, i64 25
  %36 = load i8, ptr %35, align 1, !range !6, !noundef !7
  %37 = trunc nuw i8 %36 to i1
  br i1 %.not62, label %43, label %38

38:                                               ; preds = %28
  %39 = and i32 %30, 3
  %.not64 = icmp eq i32 %39, 0
  %or.cond70 = select i1 %37, i1 true, i1 %.not64
  br i1 %or.cond70, label %48, label %40

40:                                               ; preds = %38
  %41 = and i32 %30, -4
  %42 = add i32 %41, 4
  br label %48

43:                                               ; preds = %28
  %44 = and i32 %30, 1
  %.not63 = icmp eq i32 %44, 0
  %or.cond71 = select i1 %37, i1 true, i1 %.not63
  br i1 %or.cond71, label %48, label %45

45:                                               ; preds = %43
  %46 = and i32 %30, -2
  %47 = add i32 %46, 2
  br label %48

48:                                               ; preds = %43, %45, %38, %40
  %.1 = phi i32 [ %30, %38 ], [ %42, %40 ], [ %30, %43 ], [ %47, %45 ]
  %49 = load i32, ptr @hf_netlogon_secure_channel_type, align 4
  %50 = tail call i32 @dissect_ndr_uint1632(ptr noundef %0, i32 noundef %.1, ptr noundef %2, ptr noundef %3, ptr noundef %4, ptr noundef %5, i32 noundef %49, ptr noundef null)
  %51 = load ptr, ptr %7, align 8
  %52 = getelementptr inbounds nuw i8, ptr %51, i64 96
  %53 = load i32, ptr %52, align 8
  %54 = and i32 %53, 1
  %.not65 = icmp eq i32 %54, 0
  %55 = getelementptr inbounds nuw i8, ptr %4, i64 25
  %56 = load i8, ptr %55, align 1, !range !6, !noundef !7
  %57 = trunc nuw i8 %56 to i1
  br i1 %.not65, label %63, label %58

58:                                               ; preds = %48
  %59 = and i32 %50, 7
  %.not67 = icmp eq i32 %59, 0
  %or.cond72 = select i1 %57, i1 true, i1 %.not67
  br i1 %or.cond72, label %68, label %60

60:                                               ; preds = %58
  %61 = and i32 %50, -8
  %62 = add i32 %61, 8
  br label %68

63:                                               ; preds = %48
  %64 = and i32 %50, 3
  %.not66 = icmp eq i32 %64, 0
  %or.cond73 = select i1 %57, i1 true, i1 %.not66
  br i1 %or.cond73, label %68, label %65

65:                                               ; preds = %63
  %66 = and i32 %50, -4
  %67 = add i32 %66, 4
  br label %68

68:                                               ; preds = %63, %65, %58, %60
  %.2 = phi i32 [ %50, %58 ], [ %62, %60 ], [ %50, %63 ], [ %67, %65 ]
  %69 = load i32, ptr @hf_netlogon_computer_name, align 4
  %70 = tail call i32 @dissect_ndr_pointer_cb(ptr noundef %0, i32 noundef %.2, ptr noundef %2, ptr noundef %3, ptr noundef %4, ptr noundef %5, ptr noundef nonnull @dissect_ndr_wchar_cvstring, i32 noundef 1, ptr noundef nonnull @.str.252, i32 noundef %69, ptr noundef nonnull @cb_wstr_postprocess, ptr noundef nonnull inttoptr (i64 805306369 to ptr))
  %71 = getelementptr inbounds nuw i8, ptr %8, i64 80
  %72 = load ptr, ptr %71, align 8
  %73 = tail call fastcc ptr @create_global_netlogon_auth_vars(ptr noundef %2, ptr noundef %72)
  %74 = getelementptr inbounds nuw i8, ptr %4, i64 25
  %75 = load i8, ptr %74, align 1, !range !6, !noundef !7
  %76 = trunc nuw i8 %75 to i1
  %77 = and i32 %70, 3
  %.not68 = icmp eq i32 %77, 0
  %or.cond74 = select i1 %76, i1 true, i1 %.not68
  %78 = and i32 %70, -4
  %79 = add i32 %78, 4
  %.3 = select i1 %or.cond74, i32 %70, i32 %79
  %80 = tail call i32 @tvb_get_letohl(ptr noundef %0, i32 noundef %.3)
  %81 = load i32, ptr @hf_netlogon_neg_flags, align 4
  %82 = load i32, ptr @ett_authenticate_flags, align 4
  %83 = zext i32 %80 to i64
  %84 = tail call ptr @proto_tree_add_bitmask_value_with_flags(ptr noundef %3, ptr noundef %0, i32 noundef %.3, i32 noundef %81, i32 noundef %82, ptr noundef nonnull @netlogon_dissect_neg_options.hf_flags, i64 noundef %83, i32 noundef 1)
  store i1 false, ptr @seen.0, align 4
  store i32 0, ptr @seen.1, align 4
  %85 = add i32 %.3, 4
  %86 = getelementptr inbounds nuw i8, ptr %73, i64 344
  store i32 %80, ptr %86, align 8
  ret i32 %85
}